target datalayout = "e-m:e-p270:32:32-p271:32:32-p272:64:64-i64:64-i128:128-f80:128-n8:16:32:64-S128"
target triple = "x86_64-unknown-linux-gnu"

; Function Attrs: mustprogress uwtable
define void @_ZN7Imf_3_29FlatImageC2ERKN9Imath_3_23BoxINS1_4Vec2IiEEEENS_9LevelModeENS_17LevelRoundingModeE(ptr noundef nonnull align 8 dereferenceable(104) %this, ptr noundef nonnull align 4 dereferenceable(16) %dataWindow, i32 noundef %levelMode, i32 noundef %levelRoundingMode) unnamed_addr #4 align 2 personality ptr @__gxx_personality_v0 {
entry:
  %this.addr = alloca ptr, align 8
  %dataWindow.addr = alloca ptr, align 8
  %levelMode.addr = alloca i32, align 4
  %levelRoundingMode.addr = alloca i32, align 4
  %exn.slot = alloca ptr, align 8
  %ehselector.slot = alloca i32, align 4
  store ptr %this, ptr %this.addr, align 8
  store ptr %dataWindow, ptr %dataWindow.addr, align 8
  store i32 %levelMode, ptr %levelMode.addr, align 4
  store i32 %levelRoundingMode, ptr %levelRoundingMode.addr, align 4
  %this1 = load ptr, ptr %this.addr, align 8
  call void @_ZN7Imf_3_25ImageC2Ev(ptr noundef nonnull align 8 dereferenceable(104) %this1)
  store ptr getelementptr inbounds ({ [10 x ptr] }, ptr @_ZTVN7Imf_3_29FlatImageE, i32 0, i32 0, i32 2), ptr %this1, align 8
  %0 = load ptr, ptr %dataWindow.addr, align 8
  %1 = load i32, ptr %levelMode.addr, align 4
  %2 = load i32, ptr %levelRoundingMode.addr, align 4
  %vtable = load ptr, ptr %this1, align 8
  %vfn = getelementptr inbounds ptr, ptr %vtable, i64 2
  %3 = load ptr, ptr %vfn, align 8
  invoke void %3(ptr noundef nonnull align 8 dereferenceable(104) %this1, ptr noundef nonnull align 4 dereferenceable(16) %0, i32 noundef %1, i32 noundef %2)
          to label %invoke.cont unwind label %lpad

invoke.cont:                                      ; preds = %entry
  ret void

lpad:                                             ; preds = %entry
  %4 = landingpad { ptr, i32 }
          cleanup
  %5 = extractvalue { ptr, i32 } %4, 0
  store ptr %5, ptr %exn.slot, align 8
  %6 = extractvalue { ptr, i32 } %4, 1
  store i32 %6, ptr %ehselector.slot, align 4
  call void @_ZN7Imf_3_25ImageD2Ev(ptr noundef nonnull align 8 dereferenceable(104) %this1) #3
  br label %eh.resume

eh.resume:                                        ; preds = %lpad
  %exn = load ptr, ptr %exn.slot, align 8
  %sel = load i32, ptr %ehselector.slot, align 4
  %lpad.val = insertvalue { ptr, i32 } poison, ptr %exn, 0
  %lpad.val2 = insertvalue { ptr, i32 } %lpad.val, i32 %sel, 1
  resume { ptr, i32 } %lpad.val2
}