; Function Attrs: mustprogress uwtable
define void @_ZN7Imf_3_29FlatImageC2ERKN9Imath_3_23BoxINS1_4Vec2IiEEEENS_9LevelModeENS_17LevelRoundingModeE(ptr noundef nonnull align 8 dereferenceable(104) %this, ptr noundef nonnull align 4 dereferenceable(16) %dataWindow, i32 noundef %levelMode, i32 noundef %levelRoundingMode) unnamed_addr #3 align 2 personality ptr @__gxx_personality_v0 {
entry:
  tail call void @_ZN7Imf_3_25ImageC2Ev(ptr noundef nonnull align 8 dereferenceable(104) %this)
  store ptr getelementptr inbounds ({ [10 x ptr] }, ptr @_ZTVN7Imf_3_29FlatImageE, i64 0, i32 0, i64 2), ptr %this, align 8
  invoke void @_ZN7Imf_3_25Image6resizeERKN9Imath_3_23BoxINS1_4Vec2IiEEEENS_9LevelModeENS_17LevelRoundingModeE(ptr noundef nonnull align 8 dereferenceable(104) %this, ptr noundef nonnull align 4 dereferenceable(16) %dataWindow, i32 noundef %levelMode, i32 noundef %levelRoundingMode)
          to label %invoke.cont unwind label %lpad

invoke.cont:                                      ; preds = %entry
  ret void

lpad:                                             ; preds = %entry
  %0 = landingpad { ptr, i32 }
          cleanup
  tail call void @_ZN7Imf_3_25ImageD2Ev(ptr noundef nonnull align 8 dereferenceable(104) %this) #8
  resume { ptr, i32 } %0
}